target datalayout = "e-m:e-p270:32:32-p271:32:32-p272:64:64-i64:64-i128:128-f80:128-n8:16:32:64-S128"
target triple = "x86_64-pc-linux-gnu"

%"class.gmx::FlagsTemplate" = type { i64 }
%"class.gmx::GromacsException" = type { %"class.std::exception", %"class.std::shared_ptr" }
%"class.std::exception" = type { ptr }
%"class.std::shared_ptr" = type { %"class.std::__shared_ptr" }
%"class.std::__shared_ptr" = type { ptr, %"class.std::__shared_count" }
%"class.std::__shared_count" = type { ptr }
%"class.gmx::ExceptionInitializer" = type { %"class.std::__cxx11::basic_string", %"class.std::vector" }
%"class.std::__cxx11::basic_string" = type { %"struct.std::__cxx11::basic_string<char>::_Alloc_hider", i64, %union.anon }
%"struct.std::__cxx11::basic_string<char>::_Alloc_hider" = type { ptr }
%union.anon = type { i64, [8 x i8] }
%"class.std::vector" = type { %"struct.std::_Vector_base" }
%"struct.std::_Vector_base" = type { %"struct.std::_Vector_base<std::__exception_ptr::exception_ptr, std::allocator<std::__exception_ptr::exception_ptr>>::_Vector_impl" }
%"struct.std::_Vector_base<std::__exception_ptr::exception_ptr, std::allocator<std::__exception_ptr::exception_ptr>>::_Vector_impl" = type { %"struct.std::_Vector_base<std::__exception_ptr::exception_ptr, std::allocator<std::__exception_ptr::exception_ptr>>::_Vector_impl_data" }
%"struct.std::_Vector_base<std::__exception_ptr::exception_ptr, std::allocator<std::__exception_ptr::exception_ptr>>::_Vector_impl_data" = type { ptr, ptr, ptr }
%"class.gmx::ExceptionInfo" = type { %"class.gmx::internal::IExceptionInfo", %"struct.gmx::ThrowLocation" }
%"class.gmx::internal::IExceptionInfo" = type { ptr }
%"struct.gmx::ThrowLocation" = type <{ ptr, ptr, i32, [4 x i8] }>
%"class.gmx::AbstractOptionStorage" = type <{ ptr, %"class.std::__cxx11::basic_string", %"class.std::__cxx11::basic_string", %"class.gmx::FlagsTemplate", ptr, i32, i32, i8, i8, [6 x i8] }>
%"class.gmx::InvalidInputError" = type { %"class.gmx::UserInputError" }
%"class.gmx::UserInputError" = type { %"class.gmx::GromacsException" }
%class.anon.11 = type { i8 }
%class.anon.13 = type { i8 }

@.str.1 = private unnamed_addr constant [132 x i8] c"generated/home/dtcxzyw/WorkSpace/Projects/compilers/llvm-opt-benchmark/bench/gromacs/gromacs/src/gromacs/options/abstractoption.cpp\00", align 1
@_ZTIN3gmx17InvalidInputErrorE = external constant ptr
@.str.4 = private unnamed_addr constant [15 x i8] c"Too few values\00", align 1
@__PRETTY_FUNCTION__._ZN3gmx21AbstractOptionStorage16setMinValueCountEi = private unnamed_addr constant [55 x i8] c"void gmx::AbstractOptionStorage::setMinValueCount(int)\00", align 1
@_ZTVN3gmx17InvalidInputErrorE = external unnamed_addr constant { [6 x ptr] }, align 8
@_ZTVN3gmx14UserInputErrorE = linkonce_odr unnamed_addr constant { [6 x ptr] } { [6 x ptr] [ptr null, ptr @_ZTIN3gmx14UserInputErrorE, ptr @_ZN3gmx16GromacsExceptionD2Ev, ptr @_ZN3gmx14UserInputErrorD0Ev, ptr @_ZNK3gmx16GromacsException4whatEv, ptr @__cxa_pure_virtual] }, comdat, align 8
@.str.11 = private unnamed_addr constant [33 x i8] c"!hasFlag(efOption_MultipleTimes)\00", align 1
@.str.12 = private unnamed_addr constant [61 x i8] c"setMinValueCount() not supported with efOption_MultipleTimes\00", align 1
@"__PRETTY_FUNCTION__._ZZN3gmx21AbstractOptionStorage16setMinValueCountEiENK3$_0clEv" = private unnamed_addr constant [94 x i8] c"auto gmx::AbstractOptionStorage::setMinValueCount(int)::(anonymous class)::operator()() const\00", align 1
@.str.13 = private unnamed_addr constant [11 x i8] c"count >= 0\00", align 1
@.str.14 = private unnamed_addr constant [20 x i8] c"Invalid value count\00", align 1
@_ZTVN3gmx8internal14IExceptionInfoE = available_externally unnamed_addr constant { [4 x ptr] } { [4 x ptr] [ptr null, ptr @_ZTIN3gmx8internal14IExceptionInfoE, ptr @_ZN3gmx8internal14IExceptionInfoD1Ev, ptr @_ZN3gmx8internal14IExceptionInfoD0Ev] }, align 8

; Function Attrs: mustprogress nounwind uwtable
define linkonce_odr void @_ZN3gmx8internal14IExceptionInfoC2Ev(ptr noundef nonnull align 8 dereferenceable(8) %0) unnamed_addr #1 comdat align 2 {
  %2 = alloca ptr, align 8
  store ptr %0, ptr %2, align 8, !tbaa !133
  %3 = load ptr, ptr %2, align 8
  store ptr getelementptr inbounds inrange(-16, 16) ({ [4 x ptr] }, ptr @_ZTVN3gmx8internal14IExceptionInfoE, i32 0, i32 0, i32 2), ptr %3, align 8, !tbaa !10
  ret void
}

; Function Attrs: mustprogress uwtable
define linkonce_odr void @_ZN3gmx14UserInputErrorC2ERKNS_20ExceptionInitializerE(ptr noundef nonnull align 8 dereferenceable(24) %0, ptr noundef nonnull align 8 dereferenceable(56) %1) unnamed_addr #0 comdat align 2 {
  %3 = alloca ptr, align 8
  %4 = alloca ptr, align 8
  store ptr %0, ptr %3, align 8, !tbaa !127
  store ptr %1, ptr %4, align 8, !tbaa !44
  %5 = load ptr, ptr %3, align 8
  %6 = load ptr, ptr %4, align 8, !tbaa !44
  call void @_ZN3gmx16GromacsExceptionC2ERKNS_20ExceptionInitializerE(ptr noundef nonnull align 8 dereferenceable(24) %5, ptr noundef nonnull align 8 dereferenceable(56) %6)
  store ptr getelementptr inbounds inrange(-16, 32) ({ [6 x ptr] }, ptr @_ZTVN3gmx14UserInputErrorE, i32 0, i32 0, i32 2), ptr %5, align 8, !tbaa !10
  ret void
}

; Function Attrs: mustprogress nounwind uwtable
define linkonce_odr noundef zeroext i1 @_ZNK3gmx13FlagsTemplateINS_10OptionFlagEE4testES1_(ptr noundef nonnull align 8 dereferenceable(8) %0, i64 noundef %1) #1 comdat align 2 {
  %3 = alloca ptr, align 8
  %4 = alloca i64, align 8
  store ptr %0, ptr %3, align 8, !tbaa !35
  store i64 %1, ptr %4, align 8, !tbaa !38
  %5 = load ptr, ptr %3, align 8
  %6 = getelementptr inbounds nuw %"class.gmx::FlagsTemplate", ptr %5, i32 0, i32 0
  %7 = load i64, ptr %6, align 8, !tbaa !37
  %8 = load i64, ptr %4, align 8, !tbaa !38
  %9 = and i64 %7, %8
  %10 = icmp ne i64 %9, 0
  ret i1 %10
}

; Function Attrs: mustprogress nounwind uwtable
define linkonce_odr void @_ZN3gmx13ExceptionInfoINS_22ExceptionInfoLocation_ENS_13ThrowLocationEEC2ERKS2_(ptr noundef nonnull align 8 dereferenceable(32) %0, ptr noundef nonnull align 8 dereferenceable(20) %1) unnamed_addr #1 comdat align 2 {
  %3 = alloca ptr, align 8
  %4 = alloca ptr, align 8
  store ptr %0, ptr %3, align 8, !tbaa !42
  store ptr %1, ptr %4, align 8, !tbaa !47
  %5 = load ptr, ptr %3, align 8
  call void @_ZN3gmx8internal14IExceptionInfoC2Ev(ptr noundef nonnull align 8 dereferenceable(8) %5) #19
  store ptr getelementptr inbounds inrange(-16, 16) ({ [4 x ptr] }, ptr @_ZTVN3gmx13ExceptionInfoINS_22ExceptionInfoLocation_ENS_13ThrowLocationEEE, i32 0, i32 0, i32 2), ptr %5, align 8, !tbaa !10
  %6 = getelementptr inbounds nuw %"class.gmx::ExceptionInfo", ptr %5, i32 0, i32 1
  %7 = load ptr, ptr %4, align 8, !tbaa !47
  call void @llvm.memcpy.p0.p0.i64(ptr align 8 %6, ptr align 8 %7, i64 24, i1 false), !tbaa.struct !54
  ret void
}

; Function Attrs: mustprogress nounwind uwtable
define linkonce_odr void @_ZN3gmx13ThrowLocationC2EPKcS2_i(ptr noundef nonnull align 8 dereferenceable(20) %0, ptr noundef %1, ptr noundef %2, i32 noundef %3) unnamed_addr #1 comdat align 2 {
  %5 = alloca ptr, align 8
  %6 = alloca ptr, align 8
  %7 = alloca ptr, align 8
  %8 = alloca i32, align 4
  store ptr %0, ptr %5, align 8, !tbaa !47
  store ptr %1, ptr %6, align 8, !tbaa !46
  store ptr %2, ptr %7, align 8, !tbaa !46
  store i32 %3, ptr %8, align 4, !tbaa !49
  %9 = load ptr, ptr %5, align 8
  %10 = getelementptr inbounds nuw %"struct.gmx::ThrowLocation", ptr %9, i32 0, i32 0
  %11 = load ptr, ptr %6, align 8, !tbaa !46
  store ptr %11, ptr %10, align 8, !tbaa !50
  %12 = getelementptr inbounds nuw %"struct.gmx::ThrowLocation", ptr %9, i32 0, i32 1
  %13 = load ptr, ptr %7, align 8, !tbaa !46
  store ptr %13, ptr %12, align 8, !tbaa !52
  %14 = getelementptr inbounds nuw %"struct.gmx::ThrowLocation", ptr %9, i32 0, i32 2
  %15 = load i32, ptr %8, align 4, !tbaa !49
  store i32 %15, ptr %14, align 8, !tbaa !53
  ret void
}

; Function Attrs: mustprogress uwtable
define linkonce_odr void @_ZN3gmx17InvalidInputErrorC2ERKNS_20ExceptionInitializerE(ptr noundef nonnull align 8 dereferenceable(24) %0, ptr noundef nonnull align 8 dereferenceable(56) %1) unnamed_addr #0 comdat align 2 {
  %3 = alloca ptr, align 8
  %4 = alloca ptr, align 8
  store ptr %0, ptr %3, align 8, !tbaa !58
  store ptr %1, ptr %4, align 8, !tbaa !44
  %5 = load ptr, ptr %3, align 8
  %6 = load ptr, ptr %4, align 8, !tbaa !44
  call void @_ZN3gmx14UserInputErrorC2ERKNS_20ExceptionInitializerE(ptr noundef nonnull align 8 dereferenceable(24) %5, ptr noundef nonnull align 8 dereferenceable(56) %6)
  store ptr getelementptr inbounds inrange(-16, 32) ({ [6 x ptr] }, ptr @_ZTVN3gmx17InvalidInputErrorE, i32 0, i32 0, i32 2), ptr %5, align 8, !tbaa !10
  ret void
}

; Function Attrs: mustprogress uwtable
define linkonce_odr noundef zeroext i1 @_ZNK3gmx21AbstractOptionStorage5isSetEv(ptr noundef nonnull align 8 dereferenceable(98) %0) #0 comdat align 2 {
  %2 = alloca ptr, align 8
  store ptr %0, ptr %2, align 8, !tbaa !3
  %3 = load ptr, ptr %2, align 8
  %4 = call noundef zeroext i1 @_ZNK3gmx21AbstractOptionStorage7hasFlagENS_10OptionFlagE(ptr noundef nonnull align 8 dereferenceable(98) %3, i64 noundef 1)
  ret i1 %4
}

; Function Attrs: inlinehint mustprogress uwtable
define internal void @"_ZZN3gmx21AbstractOptionStorage16setMinValueCountEiENK3$_1clEv"(ptr noundef nonnull align 1 dereferenceable(1) %0) #2 align 2 {
  %2 = alloca ptr, align 8
  store ptr %0, ptr %2, align 8, !tbaa !57
  call void @_ZN3gmx8internal13assertHandlerEPKcS2_S2_S2_i(ptr noundef @.str.13, ptr noundef @.str.14, ptr noundef @"__PRETTY_FUNCTION__._ZZN3gmx21AbstractOptionStorage16setMinValueCountEiENK3$_0clEv", ptr noundef @.str.1, i32 noundef 177) #20
  unreachable
}

; Function Attrs: inlinehint mustprogress uwtable
define internal void @"_ZZN3gmx21AbstractOptionStorage16setMinValueCountEiENK3$_0clEv"(ptr noundef nonnull align 1 dereferenceable(1) %0) #2 align 2 {
  %2 = alloca ptr, align 8
  store ptr %0, ptr %2, align 8, !tbaa !57
  call void @_ZN3gmx8internal13assertHandlerEPKcS2_S2_S2_i(ptr noundef @.str.11, ptr noundef @.str.12, ptr noundef @"__PRETTY_FUNCTION__._ZZN3gmx21AbstractOptionStorage16setMinValueCountEiENK3$_0clEv", ptr noundef @.str.1, i32 noundef 176) #20
  unreachable
}

; Function Attrs: mustprogress uwtable
define linkonce_odr noundef zeroext i1 @_ZNK3gmx21AbstractOptionStorage7hasFlagENS_10OptionFlagE(ptr noundef nonnull align 8 dereferenceable(98) %0, i64 noundef %1) #0 comdat align 2 {
  %3 = alloca ptr, align 8
  %4 = alloca i64, align 8
  store ptr %0, ptr %3, align 8, !tbaa !3
  store i64 %1, ptr %4, align 8, !tbaa !38
  %5 = load ptr, ptr %3, align 8
  %6 = getelementptr inbounds nuw %"class.gmx::AbstractOptionStorage", ptr %5, i32 0, i32 3
  %7 = load i64, ptr %4, align 8, !tbaa !38
  %8 = call noundef zeroext i1 @_ZNK3gmx13FlagsTemplateINS_10OptionFlagEE4testES1_(ptr noundef nonnull align 8 dereferenceable(8) %6, i64 noundef %7)
  ret i1 %8
}

; Function Attrs: mustprogress uwtable
define void @_ZN3gmx21AbstractOptionStorage16setMinValueCountEi(ptr noundef nonnull align 8 dereferenceable(98) %0, i32 noundef %1) #0 align 2 personality ptr @__gxx_personality_v0 {
  %3 = alloca ptr, align 8
  %4 = alloca i32, align 4
  %5 = alloca %class.anon.11, align 1
  %6 = alloca %class.anon.13, align 1
  %7 = alloca %"class.gmx::InvalidInputError", align 8
  %8 = alloca %"class.gmx::ExceptionInitializer", align 8
  %9 = alloca ptr, align 8
  %10 = alloca i32, align 4
  %11 = alloca %"class.gmx::ExceptionInfo", align 8
  %12 = alloca %"struct.gmx::ThrowLocation", align 8
  %13 = alloca i1, align 1
  store ptr %0, ptr %3, align 8, !tbaa !3
  store i32 %1, ptr %4, align 4, !tbaa !49
  %14 = load ptr, ptr %3, align 8
  %15 = call noundef zeroext i1 @_ZNK3gmx21AbstractOptionStorage7hasFlagENS_10OptionFlagE(ptr noundef nonnull align 8 dereferenceable(98) %14, i64 noundef 32)
  call void @llvm.lifetime.start.p0(i64 1, ptr %5) #19
  br i1 %15, label %17, label %16

16:                                               ; preds = %2
  br label %18

17:                                               ; preds = %2
  call void @"_ZZN3gmx21AbstractOptionStorage16setMinValueCountEiENK3$_0clEv"(ptr noundef nonnull align 1 dereferenceable(1) %5)
  br label %18

18:                                               ; preds = %17, %16
  call void @llvm.lifetime.end.p0(i64 1, ptr %5) #19
  %19 = load i32, ptr %4, align 4, !tbaa !49
  %20 = icmp sge i32 %19, 0
  call void @llvm.lifetime.start.p0(i64 1, ptr %6) #19
  br i1 %20, label %21, label %22

21:                                               ; preds = %18
  br label %23

22:                                               ; preds = %18
  call void @"_ZZN3gmx21AbstractOptionStorage16setMinValueCountEiENK3$_1clEv"(ptr noundef nonnull align 1 dereferenceable(1) %6)
  br label %23

23:                                               ; preds = %22, %21
  call void @llvm.lifetime.end.p0(i64 1, ptr %6) #19
  %24 = load i32, ptr %4, align 4, !tbaa !49
  %25 = getelementptr inbounds nuw %"class.gmx::AbstractOptionStorage", ptr %14, i32 0, i32 5
  store i32 %24, ptr %25, align 8, !tbaa !25
  %26 = call noundef zeroext i1 @_ZNK3gmx21AbstractOptionStorage5isSetEv(ptr noundef nonnull align 8 dereferenceable(98) %14)
  br i1 %26, label %27, label %66

27:                                               ; preds = %23
  %28 = call noundef zeroext i1 @_ZNK3gmx21AbstractOptionStorage7hasFlagENS_10OptionFlagE(ptr noundef nonnull align 8 dereferenceable(98) %14, i64 noundef 1024)
  br i1 %28, label %66, label %29

29:                                               ; preds = %27
  %30 = load ptr, ptr %14, align 8, !tbaa !10
  %31 = getelementptr inbounds ptr, ptr %30, i64 5
  %32 = load ptr, ptr %31, align 8
  %33 = call noundef i32 %32(ptr noundef nonnull align 8 dereferenceable(98) %14)
  %34 = getelementptr inbounds nuw %"class.gmx::AbstractOptionStorage", ptr %14, i32 0, i32 5
  %35 = load i32, ptr %34, align 8, !tbaa !25
  %36 = icmp slt i32 %33, %35
  br i1 %36, label %37, label %66

37:                                               ; preds = %29
  store i1 true, ptr %13, align 1
  %38 = call ptr @__cxa_allocate_exception(i64 24) #19
  call void @llvm.lifetime.start.p0(i64 56, ptr %8) #19
  invoke void @_ZN3gmx20ExceptionInitializerC2EPKc(ptr noundef nonnull align 8 dereferenceable(56) %8, ptr noundef @.str.4)
          to label %39 unwind label %44

39:                                               ; preds = %37
  invoke void @_ZN3gmx17InvalidInputErrorC2ERKNS_20ExceptionInitializerE(ptr noundef nonnull align 8 dereferenceable(24) %7, ptr noundef nonnull align 8 dereferenceable(56) %8)
          to label %40 unwind label %48

40:                                               ; preds = %39
  call void @llvm.lifetime.start.p0(i64 32, ptr %11) #19
  call void @llvm.lifetime.start.p0(i64 24, ptr %12) #19
  invoke void @_ZN3gmx13ThrowLocationC2EPKcS2_i(ptr noundef nonnull align 8 dereferenceable(20) %12, ptr noundef @__PRETTY_FUNCTION__._ZN3gmx21AbstractOptionStorage16setMinValueCountEi, ptr noundef @.str.1, i32 noundef 181)
          to label %41 unwind label %52

41:                                               ; preds = %40
  invoke void @_ZN3gmx13ExceptionInfoINS_22ExceptionInfoLocation_ENS_13ThrowLocationEEC2ERKS2_(ptr noundef nonnull align 8 dereferenceable(32) %11, ptr noundef nonnull align 8 dereferenceable(20) %12)
          to label %42 unwind label %52

42:                                               ; preds = %41
  invoke void @_ZN3gmxlsINS_17InvalidInputErrorENS_22ExceptionInfoLocation_ENS_13ThrowLocationEEENSt9enable_ifIXsr3stdE12is_base_of_vINS_16GromacsExceptionET_EES6_E4typeES6_RKNS_13ExceptionInfoIT0_T1_EE(ptr dead_on_unwind writable sret(%"class.gmx::InvalidInputError") align 8 %38, ptr noundef %7, ptr noundef nonnull align 8 dereferenceable(32) %11)
          to label %43 unwind label %56

43:                                               ; preds = %42
  store i1 false, ptr %13, align 1
  invoke void @__cxa_throw(ptr %38, ptr @_ZTIN3gmx17InvalidInputErrorE, ptr @_ZN3gmx16GromacsExceptionD2Ev) #20
          to label %72 unwind label %56

44:                                               ; preds = %37
  %45 = landingpad { ptr, i32 }
          cleanup
  %46 = extractvalue { ptr, i32 } %45, 0
  store ptr %46, ptr %9, align 8
  %47 = extractvalue { ptr, i32 } %45, 1
  store i32 %47, ptr %10, align 4
  br label %62

48:                                               ; preds = %39
  %49 = landingpad { ptr, i32 }
          cleanup
  %50 = extractvalue { ptr, i32 } %49, 0
  store ptr %50, ptr %9, align 8
  %51 = extractvalue { ptr, i32 } %49, 1
  store i32 %51, ptr %10, align 4
  br label %61

52:                                               ; preds = %41, %40
  %53 = landingpad { ptr, i32 }
          cleanup
  %54 = extractvalue { ptr, i32 } %53, 0
  store ptr %54, ptr %9, align 8
  %55 = extractvalue { ptr, i32 } %53, 1
  store i32 %55, ptr %10, align 4
  br label %60

56:                                               ; preds = %43, %42
  %57 = landingpad { ptr, i32 }
          cleanup
  %58 = extractvalue { ptr, i32 } %57, 0
  store ptr %58, ptr %9, align 8
  %59 = extractvalue { ptr, i32 } %57, 1
  store i32 %59, ptr %10, align 4
  call void @_ZN3gmx8internal14IExceptionInfoD2Ev(ptr noundef nonnull align 8 dereferenceable(32) %11) #19
  br label %60

60:                                               ; preds = %56, %52
  call void @llvm.lifetime.end.p0(i64 24, ptr %12) #19
  call void @llvm.lifetime.end.p0(i64 32, ptr %11) #19
  call void @_ZN3gmx16GromacsExceptionD2Ev(ptr noundef nonnull align 8 dereferenceable(24) %7) #19
  br label %61

61:                                               ; preds = %60, %48
  call void @_ZN3gmx20ExceptionInitializerD2Ev(ptr noundef nonnull align 8 dereferenceable(56) %8) #19
  br label %62

62:                                               ; preds = %61, %44
  call void @llvm.lifetime.end.p0(i64 56, ptr %8) #19
  %63 = load i1, ptr %13, align 1
  br i1 %63, label %64, label %65

64:                                               ; preds = %62
  call void @__cxa_free_exception(ptr %38) #19
  br label %65

65:                                               ; preds = %64, %62
  br label %67

66:                                               ; preds = %29, %27, %23
  ret void

67:                                               ; preds = %65
  %68 = load ptr, ptr %9, align 8
  %69 = load i32, ptr %10, align 4
  %70 = insertvalue { ptr, i32 } poison, ptr %68, 0
  %71 = insertvalue { ptr, i32 } %70, i32 %69, 1
  resume { ptr, i32 } %71

72:                                               ; preds = %43
  unreachable
}