; Function Attrs: mustprogress uwtable
define void @_ZN3gmx21AbstractOptionStorage16setMinValueCountEi(ptr noundef nonnull align 8 dereferenceable(98) %0, i32 noundef %1) local_unnamed_addr #0 align 2 personality ptr @__gxx_personality_v0 {
  %3 = alloca %"class.gmx::InvalidInputError", align 8
  %4 = alloca %"class.gmx::ExceptionInitializer", align 8
  %5 = alloca %"class.gmx::ExceptionInfo", align 8
  %6 = getelementptr inbounds nuw i8, ptr %0, i64 72
  %7 = load i64, ptr %6, align 8, !tbaa !15
  %8 = and i64 %7, 32
  %.not = icmp eq i64 %8, 0
  br i1 %.not, label %10, label %9

9:                                                ; preds = %2
  tail call void @_ZN3gmx8internal13assertHandlerEPKcS2_S2_S2_i(ptr noundef nonnull @.str.11, ptr noundef nonnull @.str.12, ptr noundef nonnull @"__PRETTY_FUNCTION__._ZZN3gmx21AbstractOptionStorage16setMinValueCountEiENK3$_0clEv", ptr noundef nonnull @.str.1, i32 noundef 176) #30
  unreachable

10:                                               ; preds = %2
  %11 = icmp sgt i32 %1, -1
  br i1 %11, label %13, label %12

12:                                               ; preds = %10
  tail call void @_ZN3gmx8internal13assertHandlerEPKcS2_S2_S2_i(ptr noundef nonnull @.str.13, ptr noundef nonnull @.str.14, ptr noundef nonnull @"__PRETTY_FUNCTION__._ZZN3gmx21AbstractOptionStorage16setMinValueCountEiENK3$_0clEv", ptr noundef nonnull @.str.1, i32 noundef 177) #30
  unreachable

13:                                               ; preds = %10
  %14 = getelementptr inbounds nuw i8, ptr %0, i64 88
  store i32 %1, ptr %14, align 8, !tbaa !25
  %15 = and i64 %7, 1025
  %or.cond.not = icmp eq i64 %15, 1
  br i1 %or.cond.not, label %16, label %34

16:                                               ; preds = %13
  %17 = load ptr, ptr %0, align 8, !tbaa !3
  %18 = getelementptr inbounds nuw i8, ptr %17, i64 40
  %19 = load ptr, ptr %18, align 8
  %20 = tail call noundef i32 %19(ptr noundef nonnull align 8 dereferenceable(98) %0)
  %21 = load i32, ptr %14, align 8, !tbaa !25
  %22 = icmp slt i32 %20, %21
  br i1 %22, label %23, label %34

23:                                               ; preds = %16
  %24 = tail call ptr @__cxa_allocate_exception(i64 24) #29
  call void @llvm.lifetime.start.p0(i64 56, ptr nonnull %4) #29
  invoke void @_ZN3gmx20ExceptionInitializerC2EPKc(ptr noundef nonnull align 8 dereferenceable(56) %4, ptr noundef nonnull @.str.4)
          to label %25 unwind label %.thread

25:                                               ; preds = %23
  invoke void @_ZN3gmx16GromacsExceptionC2ERKNS_20ExceptionInitializerE(ptr noundef nonnull align 8 dereferenceable(24) %3, ptr noundef nonnull align 8 dereferenceable(56) %4)
          to label %26 unwind label %.thread17

26:                                               ; preds = %25
  store ptr getelementptr inbounds nuw inrange(-16, 32) (i8, ptr @_ZTVN3gmx17InvalidInputErrorE, i64 16), ptr %3, align 8, !tbaa !3
  call void @llvm.lifetime.start.p0(i64 32, ptr nonnull %5) #29
  store ptr getelementptr inbounds nuw inrange(-16, 16) (i8, ptr @_ZTVN3gmx13ExceptionInfoINS_22ExceptionInfoLocation_ENS_13ThrowLocationEEE, i64 16), ptr %5, align 8, !tbaa !3
  %27 = getelementptr inbounds nuw i8, ptr %5, i64 8
  store ptr @__PRETTY_FUNCTION__._ZN3gmx21AbstractOptionStorage16setMinValueCountEi, ptr %27, align 8, !tbaa !30
  %.sroa.4.0..sroa_idx = getelementptr inbounds nuw i8, ptr %5, i64 16
  store ptr @.str.1, ptr %.sroa.4.0..sroa_idx, align 8, !tbaa !30
  %.sroa.5.0..sroa_idx = getelementptr inbounds nuw i8, ptr %5, i64 24
  store i32 181, ptr %.sroa.5.0..sroa_idx, align 8, !tbaa !31
  invoke void @_ZN3gmxlsINS_17InvalidInputErrorENS_22ExceptionInfoLocation_ENS_13ThrowLocationEEENSt9enable_ifIXsr3stdE12is_base_of_vINS_16GromacsExceptionET_EES6_E4typeES6_RKNS_13ExceptionInfoIT0_T1_EE(ptr dead_on_unwind writable sret(%"class.gmx::InvalidInputError") align 8 %24, ptr noundef nonnull %3, ptr noundef nonnull align 8 dereferenceable(32) %5)
          to label %28 unwind label %31

28:                                               ; preds = %26
  invoke void @__cxa_throw(ptr %24, ptr nonnull @_ZTIN3gmx17InvalidInputErrorE, ptr nonnull @_ZN3gmx16GromacsExceptionD2Ev) #30
          to label %36 unwind label %31

.thread:                                          ; preds = %23
  %29 = landingpad { ptr, i32 }
          cleanup
  br label %.sink.split

.thread17:                                        ; preds = %25
  %30 = landingpad { ptr, i32 }
          cleanup
  call void @_ZN3gmx20ExceptionInitializerD2Ev(ptr noundef nonnull align 8 dereferenceable(56) %4) #29
  br label %.sink.split

31:                                               ; preds = %26, %28
  %.0 = phi i1 [ false, %28 ], [ true, %26 ]
  %32 = landingpad { ptr, i32 }
          cleanup
  call void @_ZN3gmx8internal14IExceptionInfoD2Ev(ptr noundef nonnull align 8 dereferenceable(32) %5) #29
  call void @llvm.lifetime.end.p0(i64 32, ptr nonnull %5) #29
  call void @_ZN3gmx16GromacsExceptionD2Ev(ptr noundef nonnull align 8 dereferenceable(24) %3) #29
  call void @_ZN3gmx20ExceptionInitializerD2Ev(ptr noundef nonnull align 8 dereferenceable(56) %4) #29
  call void @llvm.lifetime.end.p0(i64 56, ptr nonnull %4) #29
  br i1 %.0, label %33, label %35

.sink.split:                                      ; preds = %.thread, %.thread17
  %.pn.pn16.ph = phi { ptr, i32 } [ %30, %.thread17 ], [ %29, %.thread ]
  call void @llvm.lifetime.end.p0(i64 56, ptr nonnull %4) #29
  br label %33

33:                                               ; preds = %.sink.split, %31
  %.pn.pn16 = phi { ptr, i32 } [ %32, %31 ], [ %.pn.pn16.ph, %.sink.split ]
  call void @__cxa_free_exception(ptr %24) #29
  br label %35

34:                                               ; preds = %16, %13
  ret void

35:                                               ; preds = %31, %33
  %.pn.pn15 = phi { ptr, i32 } [ %32, %31 ], [ %.pn.pn16, %33 ]
  resume { ptr, i32 } %.pn.pn15

36:                                               ; preds = %28
  unreachable
}